; Function Attrs: mustprogress nounwind uwtable
define hidden noundef ptr @_ZNK19OpenColorIO_v2_5dev20BuiltinTransformImpl8getStyleEv(ptr noundef nonnull readonly align 8 captures(none) dereferenceable(24) %0) unnamed_addr #3 align 2 personality ptr @__gxx_personality_v0 {
  %2 = alloca %"class.std::shared_ptr.3", align 8
  call void @llvm.lifetime.start.p0(i64 16, ptr nonnull %2) #20
  call void @_ZN19OpenColorIO_v2_5dev24BuiltinTransformRegistry3GetEv(ptr dead_on_unwind nonnull writable sret(%"class.std::shared_ptr.3") align 8 %2) #20
  %3 = load ptr, ptr %2, align 8, !tbaa !39
  %4 = getelementptr inbounds nuw i8, ptr %0, i64 16
  %5 = load i64, ptr %4, align 8, !tbaa !6
  %6 = load ptr, ptr %3, align 8, !tbaa !3
  %7 = getelementptr inbounds nuw i8, ptr %6, i64 8
  %8 = load ptr, ptr %7, align 8
  %9 = invoke noundef ptr %8(ptr noundef nonnull align 8 dereferenceable(8) %3, i64 noundef %5)
          to label %10 unwind label %34

10:                                               ; preds = %1
  %11 = getelementptr inbounds nuw i8, ptr %2, i64 8
  %12 = load ptr, ptr %11, align 8, !tbaa !19
  %.not.i.i = icmp eq ptr %12, null
  br i1 %.not.i.i, label %_ZNSt12__shared_ptrIKN19OpenColorIO_v2_5dev24BuiltinTransformRegistryELN9__gnu_cxx12_Lock_policyE2EED2Ev.exit, label %13

13:                                               ; preds = %10
  %14 = getelementptr inbounds nuw i8, ptr %12, i64 8
  %15 = load atomic i64, ptr %14 acquire, align 8
  %16 = icmp eq i64 %15, 4294967297
  %17 = trunc i64 %15 to i32
  br i1 %16, label %18, label %26

18:                                               ; preds = %13
  store i32 0, ptr %14, align 8, !tbaa !20
  %19 = getelementptr inbounds nuw i8, ptr %12, i64 12
  store i32 0, ptr %19, align 4, !tbaa !23
  %20 = load ptr, ptr %12, align 8, !tbaa !3
  %21 = getelementptr inbounds nuw i8, ptr %20, i64 16
  %22 = load ptr, ptr %21, align 8
  call void %22(ptr noundef nonnull align 8 dereferenceable(16) %12) #20
  %23 = load ptr, ptr %12, align 8, !tbaa !3
  %24 = getelementptr inbounds nuw i8, ptr %23, i64 24
  %25 = load ptr, ptr %24, align 8
  call void %25(ptr noundef nonnull align 8 dereferenceable(16) %12) #20
  br label %_ZNSt12__shared_ptrIKN19OpenColorIO_v2_5dev24BuiltinTransformRegistryELN9__gnu_cxx12_Lock_policyE2EED2Ev.exit

26:                                               ; preds = %13
  %27 = load i8, ptr @__libc_single_threaded, align 1, !tbaa !35
  %.not.i.i.i = icmp eq i8 %27, 0
  br i1 %.not.i.i.i, label %30, label %28

28:                                               ; preds = %26
  %29 = add nsw i32 %17, -1
  store i32 %29, ptr %14, align 4, !tbaa !36
  br label %_ZN9__gnu_cxx27__exchange_and_add_dispatchEPii.exit.i.i.i

30:                                               ; preds = %26
  %31 = atomicrmw volatile add ptr %14, i32 -1 acq_rel, align 4
  br label %_ZN9__gnu_cxx27__exchange_and_add_dispatchEPii.exit.i.i.i

_ZN9__gnu_cxx27__exchange_and_add_dispatchEPii.exit.i.i.i: ; preds = %30, %28
  %.0.i.i.i.i = phi i32 [ %17, %28 ], [ %31, %30 ]
  %32 = icmp eq i32 %.0.i.i.i.i, 1
  br i1 %32, label %33, label %_ZNSt12__shared_ptrIKN19OpenColorIO_v2_5dev24BuiltinTransformRegistryELN9__gnu_cxx12_Lock_policyE2EED2Ev.exit, !prof !37

33:                                               ; preds = %_ZN9__gnu_cxx27__exchange_and_add_dispatchEPii.exit.i.i.i
  call void @_ZNSt16_Sp_counted_baseILN9__gnu_cxx12_Lock_policyE2EE24_M_release_last_use_coldEv(ptr noundef nonnull align 8 dereferenceable(16) %12) #20
  br label %_ZNSt12__shared_ptrIKN19OpenColorIO_v2_5dev24BuiltinTransformRegistryELN9__gnu_cxx12_Lock_policyE2EED2Ev.exit

_ZNSt12__shared_ptrIKN19OpenColorIO_v2_5dev24BuiltinTransformRegistryELN9__gnu_cxx12_Lock_policyE2EED2Ev.exit: ; preds = %10, %18, %_ZN9__gnu_cxx27__exchange_and_add_dispatchEPii.exit.i.i.i, %33
  call void @llvm.lifetime.end.p0(i64 16, ptr nonnull %2) #20
  ret ptr %9

34:                                               ; preds = %1
  %35 = landingpad { ptr, i32 }
          catch ptr null
  %36 = extractvalue { ptr, i32 } %35, 0
  call void @__clang_call_terminate(ptr %36) #22
  unreachable
}